target datalayout = "e-m:e-p270:32:32-p271:32:32-p272:64:64-i64:64-i128:128-f80:128-n8:16:32:64-S128"
target triple = "x86_64-pc-linux-gnu"

%struct.dynbuf = type { ptr, i64, i64, i64 }
%struct.Curl_cfilter = type { ptr, ptr, ptr, ptr, i32, i8 }
%struct.h1_tunnel_state = type { %struct.HTTP, %struct.dynbuf, %struct.dynbuf, i64, i64, %struct.Curl_chunker, i32, i64, i32, i8 }
%struct.HTTP = type { i64, ptr, %struct.back, i32, ptr, ptr, %struct.dynbuf }
%struct.back = type { ptr, ptr, ptr, i64, ptr }
%struct.Curl_chunker = type { i64, i32, i32, %struct.dynbuf, i8, [17 x i8], i8 }

; Function Attrs: nounwind uwtable
define internal void @cf_h1_proxy_adjust_pollset(ptr noundef %0, ptr noundef %1, ptr noundef %2) #0 {
  %4 = alloca ptr, align 8
  %5 = alloca ptr, align 8
  %6 = alloca ptr, align 8
  %7 = alloca ptr, align 8
  %8 = alloca i32, align 4
  store ptr %0, ptr %4, align 8
  store ptr %1, ptr %5, align 8
  store ptr %2, ptr %6, align 8
  %9 = load ptr, ptr %4, align 8
  %10 = getelementptr inbounds %struct.Curl_cfilter, ptr %9, i32 0, i32 2
  %11 = load ptr, ptr %10, align 8
  store ptr %11, ptr %7, align 8
  %12 = load ptr, ptr %4, align 8
  %13 = getelementptr inbounds %struct.Curl_cfilter, ptr %12, i32 0, i32 5
  %14 = load i8, ptr %13, align 4
  %15 = and i8 %14, 1
  %16 = zext i8 %15 to i32
  %17 = icmp ne i32 %16, 0
  br i1 %17, label %44, label %18

18:                                               ; preds = %3
  %19 = load ptr, ptr %4, align 8
  %20 = load ptr, ptr %5, align 8
  %21 = call i32 @Curl_conn_cf_get_socket(ptr noundef %19, ptr noundef %20)
  store i32 %21, ptr %8, align 4
  %22 = load ptr, ptr %7, align 8
  %23 = icmp ne ptr %22, null
  br i1 %23, label %24, label %39

24:                                               ; preds = %18
  %25 = load ptr, ptr %7, align 8
  %26 = getelementptr inbounds %struct.h1_tunnel_state, ptr %25, i32 0, i32 0
  %27 = getelementptr inbounds %struct.HTTP, ptr %26, i32 0, i32 3
  %28 = load i32, ptr %27, align 8
  %29 = icmp eq i32 %28, 1
  br i1 %29, label %30, label %34

30:                                               ; preds = %24
  %31 = load ptr, ptr %5, align 8
  %32 = load ptr, ptr %6, align 8
  %33 = load i32, ptr %8, align 4
  call void @Curl_pollset_change(ptr noundef %31, ptr noundef %32, i32 noundef %33, i32 noundef 2, i32 noundef 1)
  br label %38

34:                                               ; preds = %24
  %35 = load ptr, ptr %5, align 8
  %36 = load ptr, ptr %6, align 8
  %37 = load i32, ptr %8, align 4
  call void @Curl_pollset_change(ptr noundef %35, ptr noundef %36, i32 noundef %37, i32 noundef 1, i32 noundef 2)
  br label %38

38:                                               ; preds = %34, %30
  br label %43

39:                                               ; preds = %18
  %40 = load ptr, ptr %5, align 8
  %41 = load ptr, ptr %6, align 8
  %42 = load i32, ptr %8, align 4
  call void @Curl_pollset_change(ptr noundef %40, ptr noundef %41, i32 noundef %42, i32 noundef 2, i32 noundef 1)
  br label %43

43:                                               ; preds = %39, %38
  br label %44

44:                                               ; preds = %43, %3
  ret void
}