; Function Attrs: nounwind uwtable
define internal void @cf_h1_proxy_adjust_pollset(ptr noundef %0, ptr noundef %1, ptr noundef %2) #0 {
  %4 = getelementptr inbounds nuw i8, ptr %0, i64 16
  %5 = load ptr, ptr %4, align 8
  %6 = getelementptr inbounds nuw i8, ptr %0, i64 36
  %7 = load i8, ptr %6, align 4
  %8 = and i8 %7, 1
  %.not = icmp eq i8 %8, 0
  br i1 %.not, label %9, label %18

9:                                                ; preds = %3
  %10 = tail call i32 @Curl_conn_cf_get_socket(ptr noundef nonnull %0, ptr noundef %1) #5
  %.not14 = icmp eq ptr %5, null
  br i1 %.not14, label %17, label %11

11:                                               ; preds = %9
  %12 = getelementptr inbounds nuw i8, ptr %5, i64 56
  %13 = load i32, ptr %12, align 8
  %14 = icmp eq i32 %13, 1
  br i1 %14, label %15, label %16

15:                                               ; preds = %11
  tail call void @Curl_pollset_change(ptr noundef %1, ptr noundef %2, i32 noundef %10, i32 noundef 2, i32 noundef 1) #5
  br label %18

16:                                               ; preds = %11
  tail call void @Curl_pollset_change(ptr noundef %1, ptr noundef %2, i32 noundef %10, i32 noundef 1, i32 noundef 2) #5
  br label %18

17:                                               ; preds = %9
  tail call void @Curl_pollset_change(ptr noundef %1, ptr noundef %2, i32 noundef %10, i32 noundef 2, i32 noundef 1) #5
  br label %18

18:                                               ; preds = %17, %16, %15, %3
  ret void
}